(dp1
S'files'
p2
(dp3
S'_usr_share_pyshared_numpy_core_numeric'
p4
(dp5
S'index'
p6
(dp7
S'par'
p8
I0
sS'html_filename'
p9
S'_usr_share_pyshared_numpy_core_numeric.html'
p10
sS'name'
p11
S'/usr/share/pyshared/numpy/core/numeric'
p12
sS'nums'
p13
ccopy_reg
_reconstructor
p14
(ccoverage.results
Numbers
p15
c__builtin__
object
p16
NtRp17
(dp18
S'n_files'
p19
I1
sS'n_branches'
p20
I0
sS'n_statements'
p21
I486
sS'n_excluded'
p22
I0
sS'n_missing'
p23
I334
sS'n_missing_branches'
p24
I0
sbssS'hash'
p25
S'\x9e\xe4 \x10\xbdF.\x9b\x19\x94\xe1\x07!R\xf0{'
p26
ssS'_usr_share_pyshared_numpy_ctypeslib'
p27
(dp28
g6
(dp29
g8
I0
sg9
S'_usr_share_pyshared_numpy_ctypeslib.html'
p30
sg11
S'/usr/share/pyshared/numpy/ctypeslib'
p31
sg13
g14
(g15
g16
NtRp32
(dp33
g19
I1
sg20
I0
sg21
I170
sg22
I0
sg23
I130
sg24
I0
sbssg25
S'P\x99\xd7\xb4\x06RU%\xbeU\n\x870x3\xd0'
p34
ssS'_usr_share_pyshared_numpy_lib_index_tricks'
p35
(dp36
g6
(dp37
g8
I0
sg9
S'_usr_share_pyshared_numpy_lib_index_tricks.html'
p38
sg11
S'/usr/share/pyshared/numpy/lib/index_tricks'
p39
sg13
g14
(g15
g16
NtRp40
(dp41
g19
I1
sg20
I0
sg21
I253
sg22
I0
sg23
I192
sg24
I0
sbssg25
S'\xdb\x9d,5\x084*\x87y\xa9\xbfK\x86\xc5\x9f\xfa'
p42
ssS'_usr_share_pyshared_argparse'
p43
(dp44
g6
(dp45
S'par'
p46
I0
sS'html_filename'
p47
S'_usr_share_pyshared_argparse.html'
p48
sS'name'
p49
S'/usr/share/pyshared/argparse'
p50
sS'nums'
p51
g14
(g15
g16
NtRp52
(dp53
S'n_files'
p54
I1
sS'n_branches'
p55
I0
sS'n_statements'
p56
I1171
sS'n_excluded'
p57
I0
sS'n_missing'
p58
I748
sS'n_missing_branches'
p59
I0
sbssg25
S'9\xa9\x1c\xaa\xab\xdc\xdci\xf7\xd5\xf6b\xdd\xc3\x90W'
p60
ssS'_usr_share_pyshared_numpy_core_fromnumeric'
p61
(dp62
g6
(dp63
g8
I0
sg9
S'_usr_share_pyshared_numpy_core_fromnumeric.html'
p64
sg11
S'/usr/share/pyshared/numpy/core/fromnumeric'
p65
sg13
g14
(g15
g16
NtRp66
(dp67
g19
I1
sg20
I0
sg21
I287
sg22
I0
sg23
I232
sg24
I0
sbssg25
S'Q\xf2o\xbc92\x99\xab\x8f\x0f\xc9\x8e\r\x96\x10h'
p68
ssS'_usr_share_pyshared_numpy_lib_scimath'
p69
(dp70
g6
(dp71
g8
I0
sg9
S'_usr_share_pyshared_numpy_lib_scimath.html'
p72
sg11
S'/usr/share/pyshared/numpy/lib/scimath'
p73
sg13
g14
(g15
g16
NtRp74
(dp75
g19
I1
sg20
I0
sg21
I54
sg22
I0
sg23
I35
sg24
I0
sbssg25
S':\x93<\xf1\xe1J\x0e\xb8\xf4\xe9;\xa7\xac6\xc4\x07'
p76
ssS'_usr_share_pyshared_numpy_fft_info'
p77
(dp78
g6
(dp79
g8
I0
sg9
S'_usr_share_pyshared_numpy_fft_info.html'
p80
sg11
S'/usr/share/pyshared/numpy/fft/info'
p81
sg13
g14
(g15
g16
NtRp82
(dp83
g19
I1
sg20
I0
sg21
I1
sg22
I0
sg23
I0
sg24
I0
sbssg25
S'\xfa#\xc5r_\x91\x80\xc1\xd8\xfeA\x8c\xfc\xacHY'
p84
ssS'_usr_share_pyshared_numpy_linalg_linalg'
p85
(dp86
g6
(dp87
g8
I0
sg9
S'_usr_share_pyshared_numpy_linalg_linalg.html'
p88
sg11
S'/usr/share/pyshared/numpy/linalg/linalg'
p89
sg13
g14
(g15
g16
NtRp90
(dp91
g19
I1
sg20
I0
sg21
I527
sg22
I0
sg23
I487
sg24
I0
sbssg25
S'\xc6\x82m\x1316k\xbd\x0e\xd6<\xc4iWk\xde'
p92
ssS'_usr_share_pyshared_numpy_version'
p93
(dp94
g6
(dp95
g8
I0
sg9
S'_usr_share_pyshared_numpy_version.html'
p96
sg11
S'/usr/share/pyshared/numpy/version'
p97
sg13
g14
(g15
g16
NtRp98
(dp99
g19
I1
sg20
I0
sg21
I11
sg22
I0
sg23
I7
sg24
I0
sbssg25
S'\xdc\xdcLB6Ui`2\x8f\x13\xbfg\x06\xc7r'
p100
ssS'_usr_share_pyshared_numpy_core_memmap'
p101
(dp102
g6
(dp103
g8
I0
sg9
S'_usr_share_pyshared_numpy_core_memmap.html'
p104
sg11
S'/usr/share/pyshared/numpy/core/memmap'
p105
sg13
g14
(g15
g16
NtRp106
(dp107
g19
I1
sg20
I0
sg21
I75
sg22
I0
sg23
I59
sg24
I0
sbssg25
S'\xe4[b\xfd\x11\x93\xee(\xdd!ZV\x1c|\x8cl'
p108
ssS'_usr_share_pyshared_numpy_ma_core'
p109
(dp110
g6
(dp111
g8
I0
sg9
S'_usr_share_pyshared_numpy_ma_core.html'
p112
sg11
S'/usr/share/pyshared/numpy/ma/core'
p113
sg13
g14
(g15
g16
NtRp114
(dp115
g19
I1
sg20
I0
sg21
I2075
sg22
I0
sg23
I1541
sg24
I0
sbssg25
S'6 \xb7\x9c\xa1\xf6V\xb5\xcc ,\xb8\xf0H\x16%'
p116
ssS'_usr_share_pyshared_numpy_lib_twodim_base'
p117
(dp118
g6
(dp119
g8
I0
sg9
S'_usr_share_pyshared_numpy_lib_twodim_base.html'
p120
sg11
S'/usr/share/pyshared/numpy/lib/twodim_base'
p121
sg13
g14
(g15
g16
NtRp122
(dp123
g19
I1
sg20
I0
sg21
I99
sg22
I0
sg23
I86
sg24
I0
sbssg25
S'\x95\xe6cC\xab\xa4\x0c\xee8\xfb)A\x1e\x9a\xc12'
p124
ssS'_usr_share_pyshared_numpy_lib_polynomial'
p125
(dp126
g6
(dp127
g8
I0
sg9
S'_usr_share_pyshared_numpy_lib_polynomial.html'
p128
sg11
S'/usr/share/pyshared/numpy/lib/polynomial'
p129
sg13
g14
(g15
g16
NtRp130
(dp131
g19
I1
sg20
I0
sg21
I366
sg22
I0
sg23
I311
sg24
I0
sbssg25
S':6\xe8\xc7\x93\xc4\x9d\x9f\x94\xc8\x82\r\x8fB1\x0e'
p132
ssS'_usr_share_pyshared_numpy_fft_helper'
p133
(dp134
g6
(dp135
g8
I0
sg9
S'_usr_share_pyshared_numpy_fft_helper.html'
p136
sg11
S'/usr/share/pyshared/numpy/fft/helper'
p137
sg13
g14
(g15
g16
NtRp138
(dp139
g19
I1
sg20
I0
sg21
I37
sg22
I0
sg23
I31
sg24
I0
sbssg25
S'\xd4\xde\xdb\xd48\xacm8\xf4g\x1f6/(\r\xc5'
p140
ssS'_usr_share_pyshared_numpy_core_defchararray'
p141
(dp142
g6
(dp143
g8
I0
sg9
S'_usr_share_pyshared_numpy_core_defchararray.html'
p144
sg11
S'/usr/share/pyshared/numpy/core/defchararray'
p145
sg13
g14
(g15
g16
NtRp146
(dp147
g19
I1
sg20
I0
sg21
I243
sg22
I0
sg23
I177
sg24
I0
sbssg25
S'\xe3\xd2\x9b\x95\xc5\xeem\x07t_3\xedv\x86\x0fr'
p148
ssS'_usr_share_pyshared_numpy_lib___init__'
p149
(dp150
g6
(dp151
g8
I0
sg9
S'_usr_share_pyshared_numpy_lib___init__.html'
p152
sg11
S'/usr/share/pyshared/numpy/lib/__init__'
p153
sg13
g14
(g15
g16
NtRp154
(dp155
g19
I1
sg20
I0
sg21
I37
sg22
I0
sg23
I0
sg24
I0
sbssg25
S'\n\x14 \n\xc6\xfc\xaf\x07\x1cN\xa8\x9d\\\t!/'
p156
ssS'_usr_share_pyshared_numpy_core_defmatrix'
p157
(dp158
g6
(dp159
g8
I0
sg9
S'_usr_share_pyshared_numpy_core_defmatrix.html'
p160
sg11
S'/usr/share/pyshared/numpy/core/defmatrix'
p161
sg13
g14
(g15
g16
NtRp162
(dp163
g19
I1
sg20
I0
sg21
I265
sg22
I0
sg23
I205
sg24
I0
sbssg25
S'ukL\xd3)%)\x8d\xb2\x94\xc0\xd4\x9er\xa7 '
p164
ssS'_usr_share_pyshared_numpy_ma___init__'
p165
(dp166
g6
(dp167
g8
I0
sg9
S'_usr_share_pyshared_numpy_ma___init__.html'
p168
sg11
S'/usr/share/pyshared/numpy/ma/__init__'
p169
sg13
g14
(g15
g16
NtRp170
(dp171
g19
I1
sg20
I0
sg21
I14
sg22
I0
sg23
I0
sg24
I0
sbssg25
S'\x99O\xa2\x82\xd2\x0eS`R\xa5\xdd-\x03F[\x1a'
p172
ssS'_usr_share_pyshared_numpy_lib_utils'
p173
(dp174
g6
(dp175
g8
I0
sg9
S'_usr_share_pyshared_numpy_lib_utils.html'
p176
sg11
S'/usr/share/pyshared/numpy/lib/utils'
p177
sg13
g14
(g15
g16
NtRp178
(dp179
g19
I1
sg20
I0
sg21
I421
sg22
I0
sg23
I364
sg24
I0
sbssg25
S'm\xe3\x0f\x97j\x1d\x11\x87u\x80\x8f\xae\xcf\x88\x8e\x91'
p180
ssS'_usr_share_pyshared_numpy_lib_shape_base'
p181
(dp182
g6
(dp183
g8
I0
sg9
S'_usr_share_pyshared_numpy_lib_shape_base.html'
p184
sg11
S'/usr/share/pyshared/numpy/lib/shape_base'
p185
sg13
g14
(g15
g16
NtRp186
(dp187
g19
I1
sg20
I0
sg21
I224
sg22
I0
sg23
I200
sg24
I0
sbssg25
S';\x1b \x8e\x80\xe1\xbc\x16vf\xad\xca\xe3$D\x82'
p188
ssS'_usr_share_pyshared_numpy_fft_fftpack'
p189
(dp190
g6
(dp191
g8
I0
sg9
S'_usr_share_pyshared_numpy_fft_fftpack.html'
p192
sg11
S'/usr/share/pyshared/numpy/fft/fftpack'
p193
sg13
g14
(g15
g16
NtRp194
(dp195
g19
I1
sg20
I0
sg21
I116
sg22
I0
sg23
I86
sg24
I0
sbssg25
S'\xe6\xba\xfe\xdf\xca8\x06\x87\x06\x03a#\xad*\xdb\\'
p196
ssS'_usr_share_pyshared_numpy_testing_nosetester'
p197
(dp198
g6
(dp199
g8
I0
sg9
S'_usr_share_pyshared_numpy_testing_nosetester.html'
p200
sg11
S'/usr/share/pyshared/numpy/testing/nosetester'
p201
sg13
g14
(g15
g16
NtRp202
(dp203
g19
I1
sg20
I0
sg21
I130
sg22
I0
sg23
I95
sg24
I0
sbssg25
S"\xd9\xc83 \xfa\xa3\x16\xff\xac\xec\xd0\xf4'\xb91,"
p204
ssS'_usr_share_pyshared_numpy_lib_info'
p205
(dp206
g6
(dp207
g8
I0
sg9
S'_usr_share_pyshared_numpy_lib_info.html'
p208
sg11
S'/usr/share/pyshared/numpy/lib/info'
p209
sg13
g14
(g15
g16
NtRp210
(dp211
g19
I1
sg20
I0
sg21
I2
sg22
I0
sg23
I0
sg24
I0
sbssg25
S'\x99!\x85\xbc\x1cO\x10\t_T|\xcc\xca\x1f\x17*'
p212
ssS'_usr_share_pyshared_numpy__import_tools'
p213
(dp214
g6
(dp215
g8
I0
sg9
S'_usr_share_pyshared_numpy__import_tools.html'
p216
sg11
S'/usr/share/pyshared/numpy/_import_tools'
p217
sg13
g14
(g15
g16
NtRp218
(dp219
g19
I1
sg20
I0
sg21
I223
sg22
I0
sg23
I203
sg24
I0
sbssg25
S'E\x12QGy\xdfX\x90\x91\xe7\x9a\xce^E\xb6y'
p220
ssS'_usr_share_pyshared_numpy_lib__datasource'
p221
(dp222
g6
(dp223
g8
I0
sg9
S'_usr_share_pyshared_numpy_lib__datasource.html'
p224
sg11
S'/usr/share/pyshared/numpy/lib/_datasource'
p225
sg13
g14
(g15
g16
NtRp226
(dp227
g19
I1
sg20
I0
sg21
I162
sg22
I0
sg23
I127
sg24
I0
sbssg25
S'w\x97\x18\xe8o\xd6p\xc1~\xd3\x0e\xc0\xe2\xb7\xfd\x83'
p228
ssS'_usr_share_pyshared_numpy_core_numerictypes'
p229
(dp230
g6
(dp231
g8
I0
sg9
S'_usr_share_pyshared_numpy_core_numerictypes.html'
p232
sg11
S'/usr/share/pyshared/numpy/core/numerictypes'
p233
sg13
g14
(g15
g16
NtRp234
(dp235
g19
I1
sg20
I0
sg21
I334
sg22
I0
sg23
I87
sg24
I0
sbssg25
S'\xa2s\x19\xadd{\x1f\xde\xff\xf4\xca\xf3\xeb\x88\xdf~'
p236
ssS'_usr_share_pyshared_numpy___init__'
p237
(dp238
g6
(dp239
g8
I0
sg9
S'_usr_share_pyshared_numpy___init__.html'
p240
sg11
S'/usr/share/pyshared/numpy/__init__'
p241
sg13
g14
(g15
g16
NtRp242
(dp243
g19
I1
sg20
I0
sg21
I39
sg22
I0
sg23
I8
sg24
I0
sbssg25
S'\r\x00\xd1H\x89\xb1F\xb9\xf7\x98\xc3\xa9\x8b\n4I'
p244
ssS'_usr_share_pyshared_numpy_add_newdocs'
p245
(dp246
g6
(dp247
g8
I0
sg9
S'_usr_share_pyshared_numpy_add_newdocs.html'
p248
sg11
S'/usr/share/pyshared/numpy/add_newdocs'
p249
sg13
g14
(g15
g16
NtRp250
(dp251
g19
I1
sg20
I0
sg21
I236
sg22
I0
sg23
I0
sg24
I0
sbssg25
S'Y \xfe\x93\xec\xcd\x93\x98}\x81=\xf5\xbe\xf34\xc3'
p252
ssS'_usr_share_pyshared_numpy_lib_function_base'
p253
(dp254
g6
(dp255
g8
I0
sg9
S'_usr_share_pyshared_numpy_lib_function_base.html'
p256
sg11
S'/usr/share/pyshared/numpy/lib/function_base'
p257
sg13
g14
(g15
g16
NtRp258
(dp259
g19
I1
sg20
I0
sg21
I794
sg22
I0
sg23
I713
sg24
I0
sbssg25
S'W\x92\xaf\x03`\x80Kd\xa8\xf0K\xb4\xbe\x92T7'
p260
ssS'_usr_share_pyshared_numpy_lib_arrayterator'
p261
(dp262
g6
(dp263
g8
I0
sg9
S'_usr_share_pyshared_numpy_lib_arrayterator.html'
p264
sg11
S'/usr/share/pyshared/numpy/lib/arrayterator'
p265
sg13
g14
(g15
g16
NtRp266
(dp267
g19
I1
sg20
I0
sg21
I69
sg22
I0
sg23
I58
sg24
I0
sbssg25
S'\xb3\xe2\xac\x9d\x90\xcd\x9a\xe8S\x18\xcb\xf3\xe2\xf2"\x88'
p268
ssS'_usr_share_pyshared_numpy_core__internal'
p269
(dp270
g6
(dp271
g8
I0
sg9
S'_usr_share_pyshared_numpy_core__internal.html'
p272
sg11
S'/usr/share/pyshared/numpy/core/_internal'
p273
sg13
g14
(g15
g16
NtRp274
(dp275
g19
I1
sg20
I0
sg21
I211
sg22
I0
sg23
I170
sg24
I0
sbssg25
S'f\xd6\xa9B\xac<lr2u.SF\xaf5`'
p276
ssS'_usr_share_pyshared_numpy_core___init__'
p277
(dp278
g6
(dp279
g8
I0
sg9
S'_usr_share_pyshared_numpy_core___init__.html'
p280
sg11
S'/usr/share/pyshared/numpy/core/__init__'
p281
sg13
g14
(g15
g16
NtRp282
(dp283
g19
I1
sg20
I0
sg21
I29
sg22
I0
sg23
I0
sg24
I0
sbssg25
S')\x17|\xa8\xbb\xc3SW~<;ni\x19L:'
p284
ssS'_usr_share_pyshared_numpy_random___init__'
p285
(dp286
g6
(dp287
g8
I0
sg9
S'_usr_share_pyshared_numpy_random___init__.html'
p288
sg11
S'/usr/share/pyshared/numpy/random/__init__'
p289
sg13
g14
(g15
g16
NtRp290
(dp291
g19
I1
sg20
I0
sg21
I9
sg22
I0
sg23
I1
sg24
I0
sbssg25
S')\xd6\xb15\x1f\xbe\xe3O\xfb\x01\xc1\x84\x9b\xb96&'
p292
ssS'_usr_share_pyshared_numpy_lib_arraysetops'
p293
(dp294
g6
(dp295
g8
I0
sg9
S'_usr_share_pyshared_numpy_lib_arraysetops.html'
p296
sg11
S'/usr/share/pyshared/numpy/lib/arraysetops'
p297
sg13
g14
(g15
g16
NtRp298
(dp299
g19
I1
sg20
I0
sg21
I78
sg22
I0
sg23
I68
sg24
I0
sbssg25
S'\x10LS\xb4\xabx\xdd\xec\xc8\xf5\xc9K\xb9+s\xa5'
p300
ssS'_usr_share_pyshared_numpy_lib_stride_tricks'
p301
(dp302
g6
(dp303
g8
I0
sg9
S'_usr_share_pyshared_numpy_lib_stride_tricks.html'
p304
sg11
S'/usr/share/pyshared/numpy/lib/stride_tricks'
p305
sg13
g14
(g15
g16
NtRp306
(dp307
g19
I1
sg20
I0
sg21
I44
sg22
I0
sg23
I38
sg24
I0
sbssg25
S'g$\xe4}m8\xc0`4 *\xba\xe5\x0f\xe7\xf2'
p308
ssS'_usr_share_pyshared_numpy_lib_financial'
p309
(dp310
g6
(dp311
g8
I0
sg9
S'_usr_share_pyshared_numpy_lib_financial.html'
p312
sg11
S'/usr/share/pyshared/numpy/lib/financial'
p313
sg13
g14
(g15
g16
NtRp314
(dp315
g19
I1
sg20
I0
sg21
I92
sg22
I0
sg23
I77
sg24
I0
sbssg25
S'<{\x03\xa1b^\xafGw$]\xc3\xcc\xef\x93Y'
p316
ssS'_usr_share_pyshared_numpy_core_arrayprint'
p317
(dp318
g6
(dp319
g8
I0
sg9
S'_usr_share_pyshared_numpy_core_arrayprint.html'
p320
sg11
S'/usr/share/pyshared/numpy/core/arrayprint'
p321
sg13
g14
(g15
g16
NtRp322
(dp323
g19
I1
sg20
I0
sg21
I259
sg22
I0
sg23
I221
sg24
I0
sbssg25
S'\xf1\xa7\xe3\x98\xcey\x00\xd3yT\xec\xb3(?\x04\xf5'
p324
ssS'_usr_share_pyshared_numpy_linalg___init__'
p325
(dp326
g6
(dp327
g8
I0
sg9
S'_usr_share_pyshared_numpy_linalg___init__.html'
p328
sg11
S'/usr/share/pyshared/numpy/linalg/__init__'
p329
sg13
g14
(g15
g16
NtRp330
(dp331
g19
I1
sg20
I0
sg21
I5
sg22
I0
sg23
I0
sg24
I0
sbssg25
S'2,\x89\xf9\x9e\xd3\xd8\x8c\x13j\xad\xd5\xf4&\x86r'
p332
ssS'_usr_share_pyshared_numpy_core_records'
p333
(dp334
g6
(dp335
g8
I0
sg9
S'_usr_share_pyshared_numpy_core_records.html'
p336
sg11
S'/usr/share/pyshared/numpy/core/records'
p337
sg13
g14
(g15
g16
NtRp338
(dp339
g19
I1
sg20
I0
sg21
I356
sg22
I0
sg23
I319
sg24
I0
sbssg25
S'w\xa70e\x89x\xc7\xd7\x94\x95\x00@\xe1\x04"\xaf'
p340
ssS'_usr_share_pyshared_numpy_linalg_info'
p341
(dp342
g6
(dp343
g8
I0
sg9
S'_usr_share_pyshared_numpy_linalg_info.html'
p344
sg11
S'/usr/share/pyshared/numpy/linalg/info'
p345
sg13
g14
(g15
g16
NtRp346
(dp347
g19
I1
sg20
I0
sg21
I1
sg22
I0
sg23
I0
sg24
I0
sbssg25
S'\x1c\xbf\x8cG\xa2\x92\xd71\xa5\x0c\xfd57\xce\xb2\xd1'
p348
ssS'_usr_share_pyshared_numpy_core_info'
p349
(dp350
g6
(dp351
g8
I0
sg9
S'_usr_share_pyshared_numpy_core_info.html'
p352
sg11
S'/usr/share/pyshared/numpy/core/info'
p353
sg13
g14
(g15
g16
NtRp354
(dp355
g19
I1
sg20
I0
sg21
I3
sg22
I0
sg23
I0
sg24
I0
sbssg25
S'\x8e\x01\x13L\xeaz)xB\x82\xe5\x83\xc7\xc7`+'
p356
ssS'_usr_share_pyshared_numpy_fft___init__'
p357
(dp358
g6
(dp359
g8
I0
sg9
S'_usr_share_pyshared_numpy_fft___init__.html'
p360
sg11
S'/usr/share/pyshared/numpy/fft/__init__'
p361
sg13
g14
(g15
g16
NtRp362
(dp363
g19
I1
sg20
I0
sg21
I6
sg22
I0
sg23
I0
sg24
I0
sbssg25
S'\xfa\x0cK\x1bq\xf8\xea\xbb\xce\xa2-*\x87\xdb\xc6\x89'
p364
ssS'_usr_share_pyshared_numpy_lib_type_check'
p365
(dp366
g6
(dp367
g8
I0
sg9
S'_usr_share_pyshared_numpy_lib_type_check.html'
p368
sg11
S'/usr/share/pyshared/numpy/lib/type_check'
p369
sg13
g14
(g15
g16
NtRp370
(dp371
g19
I1
sg20
I0
sg21
I103
sg22
I0
sg23
I81
sg24
I0
sbssg25
S'\x1a"9\xf1\x06S\xc6\x87\x02X\xae\xae{V\x84D'
p372
ssS'_usr_share_pyshared_numpy___config__'
p373
(dp374
g6
(dp375
g8
I0
sg9
S'_usr_share_pyshared_numpy___config__.html'
p376
sg11
S'/usr/share/pyshared/numpy/__config__'
p377
sg13
g14
(g15
g16
NtRp378
(dp379
g19
I1
sg20
I0
sg21
I27
sg22
I0
sg23
I13
sg24
I0
sbssg25
S'\x80)K_(\xa3\xb7\x85C!\xe3\xb4}\x1c\xe2\x8b'
p380
ssS'_usr_share_pyshared_numpy_testing_utils'
p381
(dp382
g6
(dp383
g8
I0
sg9
S'_usr_share_pyshared_numpy_testing_utils.html'
p384
sg11
S'/usr/share/pyshared/numpy/testing/utils'
p385
sg13
g14
(g15
g16
NtRp386
(dp387
g19
I1
sg20
I0
sg21
I275
sg22
I0
sg23
I246
sg24
I0
sbssg25
S'\xb4oJ\xf8>\x06!\x83{+\x88(\xc6\xdf\xa5\xa3'
p388
ssS'_usr_share_pyshared_numpy_testing_decorators'
p389
(dp390
g6
(dp391
g8
I0
sg9
S'_usr_share_pyshared_numpy_testing_decorators.html'
p392
sg11
S'/usr/share/pyshared/numpy/testing/decorators'
p393
sg13
g14
(g15
g16
NtRp394
(dp395
g19
I1
sg20
I0
sg21
I48
sg22
I0
sg23
I44
sg24
I0
sbssg25
S"\x07\xe72\xdaSC\xcaJv\xae\xf3\x0f\xf2\x8d'c"
p396
ssS'_usr_share_pyshared_numpy_lib_io'
p397
(dp398
g6
(dp399
g8
I0
sg9
S'_usr_share_pyshared_numpy_lib_io.html'
p400
sg11
S'/usr/share/pyshared/numpy/lib/io'
p401
sg13
g14
(g15
g16
NtRp402
(dp403
g19
I1
sg20
I0
sg21
I442
sg22
I0
sg23
I410
sg24
I0
sbssg25
S'o\xe4\xc9I\xe2\xfb\xb94\x10K\xab\xf2\x111|\xa9'
p404
ssS'_usr_share_pyshared_numpy_ma_extras'
p405
(dp406
g6
(dp407
g8
I0
sg9
S'_usr_share_pyshared_numpy_ma_extras.html'
p408
sg11
S'/usr/share/pyshared/numpy/ma/extras'
p409
sg13
g14
(g15
g16
NtRp410
(dp411
g19
I1
sg20
I0
sg21
I561
sg22
I0
sg23
I483
sg24
I0
sbssg25
S'\xac9F\xbf\x17\x06`v\x087D\xfb\x8a\xae\xef\x93'
p412
ssS'_usr_share_pyshared_numpy_random_info'
p413
(dp414
g6
(dp415
g8
I0
sg9
S'_usr_share_pyshared_numpy_random_info.html'
p416
sg11
S'/usr/share/pyshared/numpy/random/info'
p417
sg13
g14
(g15
g16
NtRp418
(dp419
g19
I1
sg20
I0
sg21
I2
sg22
I0
sg23
I0
sg24
I0
sbssg25
S'\xc6\x19a,\xd9\xaf4\xac]\xc70\x1en\x11A\xea'
p420
ssS'_usr_share_pyshared_numpy_lib__iotools'
p421
(dp422
g6
(dp423
g8
I0
sg9
S'_usr_share_pyshared_numpy_lib__iotools.html'
p424
sg11
S'/usr/share/pyshared/numpy/lib/_iotools'
p425
sg13
g14
(g15
g16
NtRp426
(dp427
g19
I1
sg20
I0
sg21
I241
sg22
I0
sg23
I207
sg24
I0
sbssg25
S'+\xae\x96g\xb2\x84\x8a\xc7K\x91\xc6j!Q\x0c\xe2'
p428
ssS'_usr_share_pyshared_numpy_lib_format'
p429
(dp430
g6
(dp431
g8
I0
sg9
S'_usr_share_pyshared_numpy_lib_format.html'
p432
sg11
S'/usr/share/pyshared/numpy/lib/format'
p433
sg13
g14
(g15
g16
NtRp434
(dp435
g19
I1
sg20
I0
sg21
I155
sg22
I0
sg23
I141
sg24
I0
sbssg25
S'\xa3\xb0\xcf\xbaQ\xa8\xff\xeb\xceK\xe1\xb3Z-\x96X'
p436
ssS'_usr_share_pyshared_numpy_testing___init__'
p437
(dp438
g6
(dp439
g8
I0
sg9
S'_usr_share_pyshared_numpy_testing___init__.html'
p440
sg11
S'/usr/share/pyshared/numpy/testing/__init__'
p441
sg13
g14
(g15
g16
NtRp442
(dp443
g19
I1
sg20
I0
sg21
I7
sg22
I0
sg23
I0
sg24
I0
sbssg25
S"\x8b\xe0\xee\x13Z\x1b\xa5\xd0\xf4\xf74\x8e$'j?"
p444
ssS'_usr_share_pyshared_numpy_lib_machar'
p445
(dp446
g6
(dp447
g8
I0
sg9
S'_usr_share_pyshared_numpy_lib_machar.html'
p448
sg11
S'/usr/share/pyshared/numpy/lib/machar'
p449
sg13
g14
(g15
g16
NtRp450
(dp451
g19
I1
sg20
I0
sg21
I187
sg22
I0
sg23
I179
sg24
I0
sbssg25
S'\r\xfb(\xec#w\xff;8\x92\xa2ks\xe7t\xe6'
p452
ssS'_usr_share_pyshared_numpy_lib_getlimits'
p453
(dp454
g6
(dp455
g8
I0
sg9
S'_usr_share_pyshared_numpy_lib_getlimits.html'
p456
sg11
S'/usr/share/pyshared/numpy/lib/getlimits'
p457
sg13
g14
(g15
g16
NtRp458
(dp459
g19
I1
sg20
I0
sg21
I121
sg22
I0
sg23
I98
sg24
I0
sbssg25
S'\x12\xdd\xa2\x1e\xff\x1aR\xd6\x9e-\xe7\xec\t\x93x\xa3'
p460
ssS'_usr_share_pyshared_numpy_lib_ufunclike'
p461
(dp462
g6
(dp463
g8
I0
sg9
S'_usr_share_pyshared_numpy_lib_ufunclike.html'
p464
sg11
S'/usr/share/pyshared/numpy/lib/ufunclike'
p465
sg13
g14
(g15
g16
NtRp466
(dp467
g19
I1
sg20
I0
sg21
I30
sg22
I0
sg23
I23
sg24
I0
sbssg25
S'\x95\x87\x18\xce\xcd\x9fG\x86>a\x92\x10Ixwa'
p468
ssS'_usr_share_pyshared_numpy_testing_numpytest'
p469
(dp470
g6
(dp471
g8
I0
sg9
S'_usr_share_pyshared_numpy_testing_numpytest.html'
p472
sg11
S'/usr/share/pyshared/numpy/testing/numpytest'
p473
sg13
g14
(g15
g16
NtRp474
(dp475
g19
I1
sg20
I0
sg21
I34
sg22
I0
sg23
I25
sg24
I0
sbssg25
S"\x1b\x80*\x1ap\xa4\xd7\xc1S\xca~\x1bA\xf5\xe8'"
p476
ssS'redBlackTree'
p477
(dp478
g6
(dp479
S'par'
p480
I0
sS'html_filename'
p481
S'redBlackTree.html'
p482
sS'name'
p483
S'redBlackTree'
p484
sS'nums'
p485
g14
(g15
g16
NtRp486
(dp487
S'n_files'
p488
I1
sS'n_branches'
p489
I0
sS'n_statements'
p490
I349
sS'n_excluded'
p491
I0
sS'n_missing'
p492
I23
sS'n_missing_branches'
p493
I0
sbssg25
S'\xec\x15\xb2Y\xf2\xe2\x99\x02\xdd\xc3<U\xa9eC\xaa'
p494
sssS'version'
p495
S'3.5.2'
p496
sS'settings'
p497
S'\xbf\xcf\x1fGb\x10\x965\x00\x17N>Y\x9d\xaf\t'
p498
sS'format'
p499
I1
s.